target datalayout = "e-m:e-p270:32:32-p271:32:32-p272:64:64-i64:64-i128:128-f80:128-n8:16:32:64-S128"
target triple = "x86_64-pc-linux-gnu"

%struct.AVMetadataConv = type { ptr, ptr }
%struct.AVProbeData = type { ptr, ptr, i32, ptr }

@.str.2 = private unnamed_addr constant [4 x i8] c"\EF\BB\BF\00", align 1
@.str.3 = private unnamed_addr constant [8 x i8] c"offset:\00", align 1
@.str.4 = private unnamed_addr constant [13 x i8] c"%ld:%lu.%lu]\00", align 1
@ff_lrc_metadata_conv = external constant [0 x %struct.AVMetadataConv], align 8

; Function Attrs: nounwind uwtable
define internal i32 @lrc_probe(ptr noundef %0) #0 {
  %2 = alloca i32, align 4
  %3 = alloca ptr, align 8
  %4 = alloca i64, align 8
  %5 = alloca i64, align 8
  %6 = alloca i64, align 8
  %7 = alloca i64, align 8
  %8 = alloca ptr, align 8
  %9 = alloca i32, align 4
  %10 = alloca i64, align 8
  store ptr %0, ptr %3, align 8, !tbaa !4
  call void @llvm.lifetime.start.p0(i64 8, ptr %4) #8
  store i64 0, ptr %4, align 8, !tbaa !9
  call void @llvm.lifetime.start.p0(i64 8, ptr %5) #8
  call void @llvm.lifetime.start.p0(i64 8, ptr %6) #8
  call void @llvm.lifetime.start.p0(i64 8, ptr %7) #8
  call void @llvm.lifetime.start.p0(i64 8, ptr %8) #8
  %11 = load ptr, ptr %3, align 8, !tbaa !4
  %12 = getelementptr inbounds nuw %struct.AVProbeData, ptr %11, i32 0, i32 1
  %13 = load ptr, ptr %12, align 8, !tbaa !11
  %14 = call i32 @memcmp(ptr noundef %13, ptr noundef @.str.2, i64 noundef 3) #9
  %15 = icmp ne i32 %14, 0
  br i1 %15, label %19, label %16

16:                                               ; preds = %1
  %17 = load i64, ptr %4, align 8, !tbaa !9
  %18 = add nsw i64 %17, 3
  store i64 %18, ptr %4, align 8, !tbaa !9
  br label %19

19:                                               ; preds = %16, %1
  br label %20

20:                                               ; preds = %40, %19
  %21 = load ptr, ptr %3, align 8, !tbaa !4
  %22 = getelementptr inbounds nuw %struct.AVProbeData, ptr %21, i32 0, i32 1
  %23 = load ptr, ptr %22, align 8, !tbaa !11
  %24 = load i64, ptr %4, align 8, !tbaa !9
  %25 = getelementptr inbounds i8, ptr %23, i64 %24
  %26 = load i8, ptr %25, align 1, !tbaa !15
  %27 = zext i8 %26 to i32
  %28 = icmp eq i32 %27, 10
  br i1 %28, label %38, label %29

29:                                               ; preds = %20
  %30 = load ptr, ptr %3, align 8, !tbaa !4
  %31 = getelementptr inbounds nuw %struct.AVProbeData, ptr %30, i32 0, i32 1
  %32 = load ptr, ptr %31, align 8, !tbaa !11
  %33 = load i64, ptr %4, align 8, !tbaa !9
  %34 = getelementptr inbounds i8, ptr %32, i64 %33
  %35 = load i8, ptr %34, align 1, !tbaa !15
  %36 = zext i8 %35 to i32
  %37 = icmp eq i32 %36, 13
  br label %38

38:                                               ; preds = %29, %20
  %39 = phi i1 [ true, %20 ], [ %37, %29 ]
  br i1 %39, label %40, label %43

40:                                               ; preds = %38
  %41 = load i64, ptr %4, align 8, !tbaa !9
  %42 = add nsw i64 %41, 1
  store i64 %42, ptr %4, align 8, !tbaa !9
  br label %20, !llvm.loop !16

43:                                               ; preds = %38
  %44 = load ptr, ptr %3, align 8, !tbaa !4
  %45 = getelementptr inbounds nuw %struct.AVProbeData, ptr %44, i32 0, i32 1
  %46 = load ptr, ptr %45, align 8, !tbaa !11
  %47 = load i64, ptr %4, align 8, !tbaa !9
  %48 = getelementptr inbounds i8, ptr %46, i64 %47
  %49 = load i8, ptr %48, align 1, !tbaa !15
  %50 = zext i8 %49 to i32
  %51 = icmp ne i32 %50, 91
  br i1 %51, label %52, label %53

52:                                               ; preds = %43
  store i32 0, ptr %2, align 4
  store i32 1, ptr %9, align 4
  br label %115

53:                                               ; preds = %43
  %54 = load i64, ptr %4, align 8, !tbaa !9
  %55 = add nsw i64 %54, 1
  store i64 %55, ptr %4, align 8, !tbaa !9
  %56 = load ptr, ptr %3, align 8, !tbaa !4
  %57 = getelementptr inbounds nuw %struct.AVProbeData, ptr %56, i32 0, i32 1
  %58 = load ptr, ptr %57, align 8, !tbaa !11
  %59 = load i64, ptr %4, align 8, !tbaa !9
  %60 = getelementptr inbounds i8, ptr %58, i64 %59
  %61 = call i32 @memcmp(ptr noundef %60, ptr noundef @.str.3, i64 noundef 7) #9
  %62 = icmp ne i32 %61, 0
  br i1 %62, label %64, label %63

63:                                               ; preds = %53
  store i32 40, ptr %2, align 4
  store i32 1, ptr %9, align 4
  br label %115

64:                                               ; preds = %53
  %65 = load ptr, ptr %3, align 8, !tbaa !4
  %66 = getelementptr inbounds nuw %struct.AVProbeData, ptr %65, i32 0, i32 1
  %67 = load ptr, ptr %66, align 8, !tbaa !11
  %68 = load i64, ptr %4, align 8, !tbaa !9
  %69 = getelementptr inbounds i8, ptr %67, i64 %68
  %70 = call i32 (ptr, ptr, ...) @__isoc99_sscanf(ptr noundef %69, ptr noundef @.str.4, ptr noundef %5, ptr noundef %6, ptr noundef %7) #8
  %71 = icmp eq i32 %70, 3
  br i1 %71, label %72, label %73

72:                                               ; preds = %64
  store i32 50, ptr %2, align 4
  store i32 1, ptr %9, align 4
  br label %115

73:                                               ; preds = %64
  store ptr @ff_lrc_metadata_conv, ptr %8, align 8, !tbaa !18
  br label %74

74:                                               ; preds = %111, %73
  %75 = load ptr, ptr %8, align 8, !tbaa !18
  %76 = getelementptr inbounds nuw %struct.AVMetadataConv, ptr %75, i32 0, i32 0
  %77 = load ptr, ptr %76, align 8, !tbaa !20
  %78 = icmp ne ptr %77, null
  br i1 %78, label %79, label %114

79:                                               ; preds = %74
  call void @llvm.lifetime.start.p0(i64 8, ptr %10) #8
  %80 = load ptr, ptr %8, align 8, !tbaa !18
  %81 = getelementptr inbounds nuw %struct.AVMetadataConv, ptr %80, i32 0, i32 0
  %82 = load ptr, ptr %81, align 8, !tbaa !20
  %83 = call i64 @strlen(ptr noundef %82) #9
  store i64 %83, ptr %10, align 8, !tbaa !9
  %84 = load ptr, ptr %3, align 8, !tbaa !4
  %85 = getelementptr inbounds nuw %struct.AVProbeData, ptr %84, i32 0, i32 1
  %86 = load ptr, ptr %85, align 8, !tbaa !11
  %87 = load i64, ptr %4, align 8, !tbaa !9
  %88 = load i64, ptr %10, align 8, !tbaa !9
  %89 = add i64 %87, %88
  %90 = getelementptr inbounds nuw i8, ptr %86, i64 %89
  %91 = load i8, ptr %90, align 1, !tbaa !15
  %92 = zext i8 %91 to i32
  %93 = icmp eq i32 %92, 58
  br i1 %93, label %94, label %107

94:                                               ; preds = %79
  %95 = load ptr, ptr %3, align 8, !tbaa !4
  %96 = getelementptr inbounds nuw %struct.AVProbeData, ptr %95, i32 0, i32 1
  %97 = load ptr, ptr %96, align 8, !tbaa !11
  %98 = load i64, ptr %4, align 8, !tbaa !9
  %99 = getelementptr inbounds i8, ptr %97, i64 %98
  %100 = load ptr, ptr %8, align 8, !tbaa !18
  %101 = getelementptr inbounds nuw %struct.AVMetadataConv, ptr %100, i32 0, i32 0
  %102 = load ptr, ptr %101, align 8, !tbaa !20
  %103 = load i64, ptr %10, align 8, !tbaa !9
  %104 = call i32 @memcmp(ptr noundef %99, ptr noundef %102, i64 noundef %103) #9
  %105 = icmp ne i32 %104, 0
  br i1 %105, label %107, label %106

106:                                              ; preds = %94
  store i32 40, ptr %2, align 4
  store i32 1, ptr %9, align 4
  br label %108

107:                                              ; preds = %94, %79
  store i32 0, ptr %9, align 4
  br label %108

108:                                              ; preds = %107, %106
  call void @llvm.lifetime.end.p0(i64 8, ptr %10) #8
  %109 = load i32, ptr %9, align 4
  switch i32 %109, label %115 [
    i32 0, label %110
  ]

110:                                              ; preds = %108
  br label %111

111:                                              ; preds = %110
  %112 = load ptr, ptr %8, align 8, !tbaa !18
  %113 = getelementptr inbounds nuw %struct.AVMetadataConv, ptr %112, i32 1
  store ptr %113, ptr %8, align 8, !tbaa !18
  br label %74, !llvm.loop !22

114:                                              ; preds = %74
  store i32 5, ptr %2, align 4
  store i32 1, ptr %9, align 4
  br label %115

115:                                              ; preds = %114, %108, %72, %63, %52
  call void @llvm.lifetime.end.p0(i64 8, ptr %8) #8
  call void @llvm.lifetime.end.p0(i64 8, ptr %7) #8
  call void @llvm.lifetime.end.p0(i64 8, ptr %6) #8
  call void @llvm.lifetime.end.p0(i64 8, ptr %5) #8
  call void @llvm.lifetime.end.p0(i64 8, ptr %4) #8
  %116 = load i32, ptr %2, align 4
  ret i32 %116
}