; Function Attrs: nofree nounwind uwtable
define internal range(i32 0, 51) i32 @lrc_probe(ptr noundef readonly captures(none) %0) #0 {
  %2 = alloca i64, align 8
  %3 = alloca i64, align 8
  %4 = alloca i64, align 8
  call void @llvm.lifetime.start.p0(i64 8, ptr nonnull %2) #8
  call void @llvm.lifetime.start.p0(i64 8, ptr nonnull %3) #8
  call void @llvm.lifetime.start.p0(i64 8, ptr nonnull %4) #8
  %5 = getelementptr inbounds nuw i8, ptr %0, i64 8
  %6 = load ptr, ptr %5, align 8, !tbaa !4
  %bcmp = tail call i32 @bcmp(ptr noundef nonnull dereferenceable(3) %6, ptr noundef nonnull dereferenceable(3) @.str.2, i64 3)
  %.not = icmp eq i32 %bcmp, 0
  %spec.select = select i1 %.not, i64 3, i64 0
  br label %7

7:                                                ; preds = %.critedge, %1
  %.128 = phi i64 [ %spec.select, %1 ], [ %10, %.critedge ]
  %8 = getelementptr inbounds nuw i8, ptr %6, i64 %.128
  %9 = load i8, ptr %8, align 1, !tbaa !11
  switch i8 %9, label %.loopexit [
    i8 10, label %.critedge
    i8 13, label %.critedge
    i8 91, label %11
  ]

.critedge:                                        ; preds = %7, %7
  %10 = add nuw nsw i64 %.128, 1
  br label %7, !llvm.loop !12

11:                                               ; preds = %7
  %12 = add nuw nsw i64 %.128, 1
  %13 = getelementptr inbounds nuw i8, ptr %6, i64 %12
  %bcmp32 = tail call i32 @bcmp(ptr noundef nonnull dereferenceable(7) %13, ptr noundef nonnull dereferenceable(7) @.str.3, i64 7)
  %.not33 = icmp eq i32 %bcmp32, 0
  br i1 %.not33, label %.loopexit, label %14

14:                                               ; preds = %11
  %15 = call i32 (ptr, ptr, ...) @__isoc99_sscanf(ptr noundef nonnull %13, ptr noundef nonnull @.str.4, ptr noundef nonnull %2, ptr noundef nonnull %3, ptr noundef nonnull %4) #8
  %16 = icmp eq i32 %15, 3
  br i1 %16, label %.loopexit, label %.preheader

.preheader:                                       ; preds = %14
  %17 = load ptr, ptr @ff_lrc_metadata_conv, align 8, !tbaa !14
  %.not3441 = icmp eq ptr %17, null
  br i1 %.not3441, label %.loopexit, label %.lr.ph

.lr.ph:                                           ; preds = %.preheader
  %18 = load ptr, ptr %5, align 8, !tbaa !4
  %19 = getelementptr i8, ptr %18, i64 %12
  br label %20

20:                                               ; preds = %.lr.ph, %.critedge38
  %21 = phi ptr [ %17, %.lr.ph ], [ %28, %.critedge38 ]
  %.02642 = phi ptr [ @ff_lrc_metadata_conv, %.lr.ph ], [ %27, %.critedge38 ]
  %22 = call i64 @strlen(ptr noundef nonnull dereferenceable(1) %21) #9
  %23 = getelementptr i8, ptr %19, i64 %22
  %24 = load i8, ptr %23, align 1, !tbaa !11
  %25 = icmp eq i8 %24, 58
  br i1 %25, label %26, label %.critedge38

26:                                               ; preds = %20
  %bcmp35 = call i32 @bcmp(ptr nonnull %19, ptr nonnull %21, i64 %22)
  %.not36 = icmp eq i32 %bcmp35, 0
  br i1 %.not36, label %.loopexit, label %.critedge38

.critedge38:                                      ; preds = %26, %20
  %27 = getelementptr inbounds nuw i8, ptr %.02642, i64 16
  %28 = load ptr, ptr %27, align 8, !tbaa !14
  %.not34 = icmp eq ptr %28, null
  br i1 %.not34, label %.loopexit, label %20, !llvm.loop !16

.loopexit:                                        ; preds = %7, %26, %.critedge38, %.preheader, %14, %11
  %.0 = phi i32 [ 40, %11 ], [ 50, %14 ], [ 5, %.preheader ], [ 40, %26 ], [ 5, %.critedge38 ], [ 0, %7 ]
  call void @llvm.lifetime.end.p0(i64 8, ptr nonnull %4) #8
  call void @llvm.lifetime.end.p0(i64 8, ptr nonnull %3) #8
  call void @llvm.lifetime.end.p0(i64 8, ptr nonnull %2) #8
  ret i32 %.0
}